target datalayout = "e-m:e-p270:32:32-p271:32:32-p272:64:64-i64:64-i128:128-f80:128-n8:16:32:64-S128"
target triple = "x86_64-pc-linux-gnu"

%struct.MovTextContext = type { ptr, ptr, ptr, ptr, ptr, i32, i32, %struct.StyleBox, %struct.AVBPrint, %struct.HighlightBox, %struct.HilightcolorBox, i8, %struct.StyleBox, i16, ptr, i32, double, i32 }
%struct.AVBPrint = type { ptr, i32, i32, i32, [1 x i8], [1000 x i8] }
%struct.HighlightBox = type { i16, i16 }
%struct.HilightcolorBox = type { i32 }
%struct.StyleBox = type { i16, i16, i8, i16, i8, i32 }

; Function Attrs: nounwind uwtable
define internal zeroext i16 @find_font_id(ptr noundef %0, ptr noundef %1) #1 {
  %3 = alloca i16, align 2
  %4 = alloca ptr, align 8
  %5 = alloca ptr, align 8
  %6 = alloca i32, align 4
  %7 = alloca i32, align 4
  store ptr %0, ptr %4, align 8, !tbaa !29
  store ptr %1, ptr %5, align 8, !tbaa !43
  %8 = load ptr, ptr %5, align 8, !tbaa !43
  %9 = icmp ne ptr %8, null
  br i1 %9, label %11, label %10

10:                                               ; preds = %2
  store i16 1, ptr %3, align 2
  br label %41

11:                                               ; preds = %2
  call void @llvm.lifetime.start.p0(i64 4, ptr %6) #11
  store i32 0, ptr %6, align 4, !tbaa !42
  br label %12

12:                                               ; preds = %35, %11
  %13 = load i32, ptr %6, align 4, !tbaa !42
  %14 = load ptr, ptr %4, align 8, !tbaa !29
  %15 = getelementptr inbounds nuw %struct.MovTextContext, ptr %14, i32 0, i32 15
  %16 = load i32, ptr %15, align 8, !tbaa !89
  %17 = icmp slt i32 %13, %16
  br i1 %17, label %19, label %18

18:                                               ; preds = %12
  store i32 2, ptr %7, align 4
  br label %38

19:                                               ; preds = %12
  %20 = load ptr, ptr %5, align 8, !tbaa !43
  %21 = load ptr, ptr %4, align 8, !tbaa !29
  %22 = getelementptr inbounds nuw %struct.MovTextContext, ptr %21, i32 0, i32 14
  %23 = load ptr, ptr %22, align 8, !tbaa !90
  %24 = load i32, ptr %6, align 4, !tbaa !42
  %25 = sext i32 %24 to i64
  %26 = getelementptr inbounds ptr, ptr %23, i64 %25
  %27 = load ptr, ptr %26, align 8, !tbaa !43
  %28 = call i32 @strcmp(ptr noundef %20, ptr noundef %27) #13
  %29 = icmp ne i32 %28, 0
  br i1 %29, label %34, label %30

30:                                               ; preds = %19
  %31 = load i32, ptr %6, align 4, !tbaa !42
  %32 = add nsw i32 %31, 1
  %33 = trunc i32 %32 to i16
  store i16 %33, ptr %3, align 2
  store i32 1, ptr %7, align 4
  br label %38

34:                                               ; preds = %19
  br label %35

35:                                               ; preds = %34
  %36 = load i32, ptr %6, align 4, !tbaa !42
  %37 = add nsw i32 %36, 1
  store i32 %37, ptr %6, align 4, !tbaa !42
  br label %12, !llvm.loop !113

38:                                               ; preds = %30, %18
  call void @llvm.lifetime.end.p0(i64 4, ptr %6) #11
  %39 = load i32, ptr %7, align 4
  switch i32 %39, label %43 [
    i32 2, label %40
    i32 1, label %41
  ]

40:                                               ; preds = %38
  store i16 1, ptr %3, align 2
  br label %41

41:                                               ; preds = %40, %38, %10
  %42 = load i16, ptr %3, align 2
  ret i16 %42

43:                                               ; preds = %38
  unreachable
}

; Function Attrs: nounwind uwtable
define internal void @mov_text_font_name_set(ptr noundef %0, ptr noundef %1) #1 {
  %3 = alloca ptr, align 8
  %4 = alloca ptr, align 8
  %5 = alloca i32, align 4
  %6 = alloca i32, align 4
  store ptr %0, ptr %3, align 8, !tbaa !29
  store ptr %1, ptr %4, align 8, !tbaa !43
  call void @llvm.lifetime.start.p0(i64 4, ptr %5) #11
  %7 = load ptr, ptr %3, align 8, !tbaa !29
  %8 = load ptr, ptr %4, align 8, !tbaa !43
  %9 = call zeroext i16 @find_font_id(ptr noundef %7, ptr noundef %8)
  %10 = zext i16 %9 to i32
  store i32 %10, ptr %5, align 4, !tbaa !42
  %11 = load ptr, ptr %3, align 8, !tbaa !29
  %12 = getelementptr inbounds nuw %struct.MovTextContext, ptr %11, i32 0, i32 7
  %13 = getelementptr inbounds nuw %struct.StyleBox, ptr %12, i32 0, i32 3
  %14 = load i16, ptr %13, align 2, !tbaa !108
  %15 = zext i16 %14 to i32
  %16 = load i32, ptr %5, align 4, !tbaa !42
  %17 = icmp eq i32 %15, %16
  br i1 %17, label %18, label %19

18:                                               ; preds = %2
  store i32 1, ptr %6, align 4
  br label %30

19:                                               ; preds = %2
  %20 = load ptr, ptr %3, align 8, !tbaa !29
  %21 = call i32 @mov_text_style_start(ptr noundef %20)
  %22 = icmp ne i32 %21, 0
  br i1 %22, label %23, label %29

23:                                               ; preds = %19
  %24 = load i32, ptr %5, align 4, !tbaa !42
  %25 = trunc i32 %24 to i16
  %26 = load ptr, ptr %3, align 8, !tbaa !29
  %27 = getelementptr inbounds nuw %struct.MovTextContext, ptr %26, i32 0, i32 7
  %28 = getelementptr inbounds nuw %struct.StyleBox, ptr %27, i32 0, i32 3
  store i16 %25, ptr %28, align 2, !tbaa !108
  br label %29

29:                                               ; preds = %23, %19
  store i32 0, ptr %6, align 4
  br label %30

30:                                               ; preds = %29, %18
  call void @llvm.lifetime.end.p0(i64 4, ptr %5) #11
  %31 = load i32, ptr %6, align 4
  switch i32 %31, label %33 [
    i32 0, label %32
    i32 1, label %32
  ]

32:                                               ; preds = %30, %30
  ret void

33:                                               ; preds = %30
  unreachable
}

; Function Attrs: nounwind uwtable
define internal void @mov_text_font_name_cb(ptr noundef %0, ptr noundef %1) #1 {
  %3 = alloca ptr, align 8
  %4 = alloca ptr, align 8
  store ptr %0, ptr %3, align 8, !tbaa !29
  store ptr %1, ptr %4, align 8, !tbaa !43
  %5 = load ptr, ptr %3, align 8, !tbaa !29
  %6 = load ptr, ptr %4, align 8, !tbaa !43
  call void @mov_text_font_name_set(ptr noundef %5, ptr noundef %6)
  ret void
}