; Function Attrs: nounwind uwtable
define internal void @mov_text_font_name_cb(ptr noundef %0, ptr noundef readonly captures(address_is_null) %1) #1 {
  %.not.i.i = icmp eq ptr %1, null
  br i1 %.not.i.i, label %find_font_id.exit.i, label %.preheader.i.i

.preheader.i.i:                                   ; preds = %2
  %3 = getelementptr inbounds nuw i8, ptr %0, i64 1128
  %4 = load i32, ptr %3, align 8, !tbaa !62
  %.not1315.i.i = icmp sgt i32 %4, 0
  br i1 %.not1315.i.i, label %.lr.ph.i.i, label %find_font_id.exit.i

.lr.ph.i.i:                                       ; preds = %.preheader.i.i
  %5 = getelementptr inbounds nuw i8, ptr %0, i64 1120
  %6 = load ptr, ptr %5, align 8, !tbaa !63
  %wide.trip.count.i.i = zext nneg i32 %4 to i64
  br label %7

7:                                                ; preds = %14, %.lr.ph.i.i
  %indvars.iv.i.i = phi i64 [ 0, %.lr.ph.i.i ], [ %indvars.iv.next.i.i, %14 ]
  %8 = getelementptr inbounds nuw ptr, ptr %6, i64 %indvars.iv.i.i
  %9 = load ptr, ptr %8, align 8, !tbaa !66
  %10 = tail call i32 @strcmp(ptr noundef nonnull readonly dereferenceable(1) %1, ptr noundef nonnull dereferenceable(1) %9) #9
  %.not12.i.i = icmp eq i32 %10, 0
  br i1 %.not12.i.i, label %11, label %14

11:                                               ; preds = %7
  %12 = trunc i64 %indvars.iv.i.i to i16
  %13 = add i16 %12, 1
  br label %find_font_id.exit.i

14:                                               ; preds = %7
  %indvars.iv.next.i.i = add nuw nsw i64 %indvars.iv.i.i, 1
  %exitcond.not.i.i = icmp eq i64 %indvars.iv.next.i.i, %wide.trip.count.i.i
  br i1 %exitcond.not.i.i, label %find_font_id.exit.i, label %7, !llvm.loop !99

find_font_id.exit.i:                              ; preds = %14, %11, %.preheader.i.i, %2
  %.010.i.i = phi i16 [ 1, %2 ], [ %13, %11 ], [ 1, %.preheader.i.i ], [ 1, %14 ]
  %15 = getelementptr inbounds nuw i8, ptr %0, i64 54
  %16 = load i16, ptr %15, align 2, !tbaa !100
  %17 = icmp eq i16 %16, %.010.i.i
  br i1 %17, label %mov_text_font_name_set.exit, label %18

18:                                               ; preds = %find_font_id.exit.i
  %19 = tail call fastcc i32 @mov_text_style_start(ptr noundef nonnull %0)
  %.not.i = icmp eq i32 %19, 0
  br i1 %.not.i, label %mov_text_font_name_set.exit, label %20

20:                                               ; preds = %18
  store i16 %.010.i.i, ptr %15, align 2, !tbaa !100
  br label %mov_text_font_name_set.exit

mov_text_font_name_set.exit:                      ; preds = %find_font_id.exit.i, %18, %20
  ret void
}